target datalayout = "e-m:e-p270:32:32-p271:32:32-p272:64:64-i64:64-i128:128-f80:128-n8:16:32:64-S128"
target triple = "x86_64-pc-linux-gnu"

@_ZN4base11trace_event24AllocationContextTrackerD1Ev = unnamed_addr alias void (ptr), ptr @_ZN4base11trace_event24AllocationContextTrackerD2Ev

; Function Attrs: mustprogress nounwind uwtable
define internal void @_ZN4base11trace_event12_GLOBAL__N_132DestructAllocationContextTrackerEPv(ptr noundef %0) #5 {
  %2 = alloca ptr, align 8
  store ptr %0, ptr %2, align 8, !tbaa !42
  %3 = load ptr, ptr %2, align 8, !tbaa !42
  %4 = icmp eq ptr %3, null
  br i1 %4, label %6, label %5

5:                                                ; preds = %1
  call void @_ZN4base11trace_event24AllocationContextTrackerD1Ev(ptr noundef nonnull align 8 dereferenceable(60) %3) #14
  call void @_ZdlPv(ptr noundef %3) #16
  br label %6

6:                                                ; preds = %5, %1
  ret void
}