; Function Attrs: mustprogress nounwind uwtable
define internal void @_ZN4base11trace_event12_GLOBAL__N_132DestructAllocationContextTrackerEPv(ptr noundef %0) #5 {
  %2 = icmp eq ptr %0, null
  br i1 %2, label %4, label %3

3:                                                ; preds = %1
  tail call void @_ZN4base11trace_event24AllocationContextTrackerD1Ev(ptr noundef nonnull align 8 dereferenceable(60) %0) #16
  tail call void @_ZdlPv(ptr noundef nonnull %0) #15
  br label %4

4:                                                ; preds = %3, %1
  ret void
}